; Function Attrs: mustprogress nofree norecurse nosync nounwind willreturn memory(argmem: read) uwtable
define internal noundef zeroext i1 @_ZL9cmp_rangeIfEbRKSt5arrayIT_Lm2EES4_(ptr noundef nonnull readonly align 4 captures(none) dereferenceable(8) %0, ptr noundef nonnull readonly align 4 captures(none) dereferenceable(8) %1) #18 {
  %3 = load float, ptr %0, align 4, !tbaa !58
  %4 = load float, ptr %1, align 4, !tbaa !58
  %5 = fcmp olt float %3, %4
  br i1 %5, label %14, label %6

6:                                                ; preds = %2
  %7 = fcmp oeq float %3, %4
  br i1 %7, label %8, label %14

8:                                                ; preds = %6
  %9 = getelementptr inbounds nuw i8, ptr %0, i64 4
  %10 = load float, ptr %9, align 4, !tbaa !58
  %11 = getelementptr inbounds nuw i8, ptr %1, i64 4
  %12 = load float, ptr %11, align 4, !tbaa !58
  %13 = fcmp ogt float %10, %12
  br label %14

14:                                               ; preds = %6, %8, %2
  %15 = phi i1 [ true, %2 ], [ false, %6 ], [ %13, %8 ]
  ret i1 %15
}